target datalayout = "e-m:e-p270:32:32-p271:32:32-p272:64:64-i64:64-i128:128-f80:128-n8:16:32:64-S128"
target triple = "x86_64-pc-linux-gnu"

%struct.AVFilterContext = type { ptr, ptr, ptr, ptr, ptr, i32, ptr, ptr, i32, ptr, ptr, i32, i32, ptr, ptr, ptr, ptr, i32, ptr, i32, i32 }
%struct.ASubBoostContext = type { ptr, double, double, double, double, double, double, double, double, double, double, double, double, double, double, ptr, %struct.AVChannelLayout, ptr, i32, ptr, ptr }
%struct.AVChannelLayout = type { i32, i32, %union.anon.1, ptr }
%union.anon.1 = type { i64 }
%struct.AVFilterLink = type { ptr, ptr, ptr, ptr, i32, i32, i32, i32, %struct.AVRational, i32, i32, i32, %struct.AVChannelLayout, %struct.AVRational, ptr, i32, %struct.AVFilterFormatsConfig, %struct.AVFilterFormatsConfig }
%struct.AVRational = type { i32, i32 }
%struct.AVFilterFormatsConfig = type { ptr, ptr, ptr, ptr, ptr }

; Function Attrs: nounwind uwtable
define internal i32 @get_coeffs(ptr noundef %0) #1 {
  %2 = alloca ptr, align 8
  %3 = alloca ptr, align 8
  %4 = alloca ptr, align 8
  %5 = alloca double, align 8
  %6 = alloca double, align 8
  store ptr %0, ptr %2, align 8, !tbaa !4
  call void @llvm.lifetime.start.p0(i64 8, ptr %3) #8
  %7 = load ptr, ptr %2, align 8, !tbaa !4
  %8 = getelementptr inbounds nuw %struct.AVFilterContext, ptr %7, i32 0, i32 9
  %9 = load ptr, ptr %8, align 8, !tbaa !9
  store ptr %9, ptr %3, align 8, !tbaa !22
  call void @llvm.lifetime.start.p0(i64 8, ptr %4) #8
  %10 = load ptr, ptr %2, align 8, !tbaa !4
  %11 = getelementptr inbounds nuw %struct.AVFilterContext, ptr %10, i32 0, i32 4
  %12 = load ptr, ptr %11, align 8, !tbaa !79
  %13 = getelementptr inbounds ptr, ptr %12, i64 0
  %14 = load ptr, ptr %13, align 8, !tbaa !26
  store ptr %14, ptr %4, align 8, !tbaa !26
  call void @llvm.lifetime.start.p0(i64 8, ptr %5) #8
  %15 = load ptr, ptr %3, align 8, !tbaa !22
  %16 = getelementptr inbounds nuw %struct.ASubBoostContext, ptr %15, i32 0, i32 7
  %17 = load double, ptr %16, align 8, !tbaa !80
  %18 = fmul nsz double 0x401921FB54442D18, %17
  %19 = load ptr, ptr %4, align 8, !tbaa !26
  %20 = getelementptr inbounds nuw %struct.AVFilterLink, ptr %19, i32 0, i32 11
  %21 = load i32, ptr %20, align 8, !tbaa !53
  %22 = sitofp i32 %21 to double
  %23 = fdiv nsz double %18, %22
  store double %23, ptr %5, align 8, !tbaa !61
  call void @llvm.lifetime.start.p0(i64 8, ptr %6) #8
  %24 = load double, ptr %5, align 8, !tbaa !61
  %25 = call nsz double @llvm.sin.f64(double %24)
  %26 = fdiv nsz double %25, 2.000000e+00
  %27 = load ptr, ptr %3, align 8, !tbaa !22
  %28 = getelementptr inbounds nuw %struct.ASubBoostContext, ptr %27, i32 0, i32 8
  %29 = load double, ptr %28, align 8, !tbaa !81
  %30 = fdiv nsz double 1.000000e+00, %29
  %31 = fsub nsz double %30, 1.000000e+00
  %32 = call nsz double @llvm.fmuladd.f64(double 2.000000e+00, double %31, double 2.000000e+00)
  %33 = call nsz double @llvm.sqrt.f64(double %32)
  %34 = fmul nsz double %26, %33
  store double %34, ptr %6, align 8, !tbaa !61
  %35 = load double, ptr %6, align 8, !tbaa !61
  %36 = fadd nsz double 1.000000e+00, %35
  %37 = load ptr, ptr %3, align 8, !tbaa !22
  %38 = getelementptr inbounds nuw %struct.ASubBoostContext, ptr %37, i32 0, i32 9
  store double %36, ptr %38, align 8, !tbaa !82
  %39 = load double, ptr %5, align 8, !tbaa !61
  %40 = call nsz double @llvm.cos.f64(double %39)
  %41 = fmul nsz double -2.000000e+00, %40
  %42 = load ptr, ptr %3, align 8, !tbaa !22
  %43 = getelementptr inbounds nuw %struct.ASubBoostContext, ptr %42, i32 0, i32 10
  store double %41, ptr %43, align 8, !tbaa !70
  %44 = load double, ptr %6, align 8, !tbaa !61
  %45 = fsub nsz double 1.000000e+00, %44
  %46 = load ptr, ptr %3, align 8, !tbaa !22
  %47 = getelementptr inbounds nuw %struct.ASubBoostContext, ptr %46, i32 0, i32 11
  store double %45, ptr %47, align 8, !tbaa !71
  %48 = load double, ptr %5, align 8, !tbaa !61
  %49 = call nsz double @llvm.cos.f64(double %48)
  %50 = fsub nsz double 1.000000e+00, %49
  %51 = fdiv nsz double %50, 2.000000e+00
  %52 = load ptr, ptr %3, align 8, !tbaa !22
  %53 = getelementptr inbounds nuw %struct.ASubBoostContext, ptr %52, i32 0, i32 12
  store double %51, ptr %53, align 8, !tbaa !67
  %54 = load double, ptr %5, align 8, !tbaa !61
  %55 = call nsz double @llvm.cos.f64(double %54)
  %56 = fsub nsz double 1.000000e+00, %55
  %57 = load ptr, ptr %3, align 8, !tbaa !22
  %58 = getelementptr inbounds nuw %struct.ASubBoostContext, ptr %57, i32 0, i32 13
  store double %56, ptr %58, align 8, !tbaa !68
  %59 = load double, ptr %5, align 8, !tbaa !61
  %60 = call nsz double @llvm.cos.f64(double %59)
  %61 = fsub nsz double 1.000000e+00, %60
  %62 = fdiv nsz double %61, 2.000000e+00
  %63 = load ptr, ptr %3, align 8, !tbaa !22
  %64 = getelementptr inbounds nuw %struct.ASubBoostContext, ptr %63, i32 0, i32 14
  store double %62, ptr %64, align 8, !tbaa !69
  %65 = load ptr, ptr %3, align 8, !tbaa !22
  %66 = getelementptr inbounds nuw %struct.ASubBoostContext, ptr %65, i32 0, i32 9
  %67 = load double, ptr %66, align 8, !tbaa !82
  %68 = load ptr, ptr %3, align 8, !tbaa !22
  %69 = getelementptr inbounds nuw %struct.ASubBoostContext, ptr %68, i32 0, i32 10
  %70 = load double, ptr %69, align 8, !tbaa !70
  %71 = fdiv nsz double %70, %67
  store double %71, ptr %69, align 8, !tbaa !70
  %72 = load ptr, ptr %3, align 8, !tbaa !22
  %73 = getelementptr inbounds nuw %struct.ASubBoostContext, ptr %72, i32 0, i32 9
  %74 = load double, ptr %73, align 8, !tbaa !82
  %75 = load ptr, ptr %3, align 8, !tbaa !22
  %76 = getelementptr inbounds nuw %struct.ASubBoostContext, ptr %75, i32 0, i32 11
  %77 = load double, ptr %76, align 8, !tbaa !71
  %78 = fdiv nsz double %77, %74
  store double %78, ptr %76, align 8, !tbaa !71
  %79 = load ptr, ptr %3, align 8, !tbaa !22
  %80 = getelementptr inbounds nuw %struct.ASubBoostContext, ptr %79, i32 0, i32 9
  %81 = load double, ptr %80, align 8, !tbaa !82
  %82 = load ptr, ptr %3, align 8, !tbaa !22
  %83 = getelementptr inbounds nuw %struct.ASubBoostContext, ptr %82, i32 0, i32 12
  %84 = load double, ptr %83, align 8, !tbaa !67
  %85 = fdiv nsz double %84, %81
  store double %85, ptr %83, align 8, !tbaa !67
  %86 = load ptr, ptr %3, align 8, !tbaa !22
  %87 = getelementptr inbounds nuw %struct.ASubBoostContext, ptr %86, i32 0, i32 9
  %88 = load double, ptr %87, align 8, !tbaa !82
  %89 = load ptr, ptr %3, align 8, !tbaa !22
  %90 = getelementptr inbounds nuw %struct.ASubBoostContext, ptr %89, i32 0, i32 13
  %91 = load double, ptr %90, align 8, !tbaa !68
  %92 = fdiv nsz double %91, %88
  store double %92, ptr %90, align 8, !tbaa !68
  %93 = load ptr, ptr %3, align 8, !tbaa !22
  %94 = getelementptr inbounds nuw %struct.ASubBoostContext, ptr %93, i32 0, i32 9
  %95 = load double, ptr %94, align 8, !tbaa !82
  %96 = load ptr, ptr %3, align 8, !tbaa !22
  %97 = getelementptr inbounds nuw %struct.ASubBoostContext, ptr %96, i32 0, i32 14
  %98 = load double, ptr %97, align 8, !tbaa !69
  %99 = fdiv nsz double %98, %95
  store double %99, ptr %97, align 8, !tbaa !69
  %100 = load ptr, ptr %4, align 8, !tbaa !26
  %101 = getelementptr inbounds nuw %struct.AVFilterLink, ptr %100, i32 0, i32 11
  %102 = load i32, ptr %101, align 8, !tbaa !53
  %103 = sitofp i32 %102 to double
  %104 = load ptr, ptr %3, align 8, !tbaa !22
  %105 = getelementptr inbounds nuw %struct.ASubBoostContext, ptr %104, i32 0, i32 6
  %106 = load double, ptr %105, align 8, !tbaa !83
  %107 = fmul nsz double %103, %106
  %108 = fdiv nsz double %107, 1.000000e+03
  %109 = fptosi double %108 to i32
  %110 = load ptr, ptr %3, align 8, !tbaa !22
  %111 = getelementptr inbounds nuw %struct.ASubBoostContext, ptr %110, i32 0, i32 18
  store i32 %109, ptr %111, align 8, !tbaa !73
  call void @llvm.lifetime.end.p0(i64 8, ptr %6) #8
  call void @llvm.lifetime.end.p0(i64 8, ptr %5) #8
  call void @llvm.lifetime.end.p0(i64 8, ptr %4) #8
  call void @llvm.lifetime.end.p0(i64 8, ptr %3) #8
  ret i32 0
}

; Function Attrs: nounwind uwtable
define internal i32 @process_command(ptr noundef %0, ptr noundef %1, ptr noundef %2, ptr noundef %3, i32 noundef %4, i32 noundef %5) #1 {
  %7 = alloca i32, align 4
  %8 = alloca ptr, align 8
  %9 = alloca ptr, align 8
  %10 = alloca ptr, align 8
  %11 = alloca ptr, align 8
  %12 = alloca i32, align 4
  %13 = alloca i32, align 4
  %14 = alloca i32, align 4
  %15 = alloca i32, align 4
  store ptr %0, ptr %8, align 8, !tbaa !4
  store ptr %1, ptr %9, align 8, !tbaa !24
  store ptr %2, ptr %10, align 8, !tbaa !24
  store ptr %3, ptr %11, align 8, !tbaa !24
  store i32 %4, ptr %12, align 4, !tbaa !25
  store i32 %5, ptr %13, align 4, !tbaa !25
  call void @llvm.lifetime.start.p0(i64 4, ptr %14) #8
  %16 = load ptr, ptr %8, align 8, !tbaa !4
  %17 = load ptr, ptr %9, align 8, !tbaa !24
  %18 = load ptr, ptr %10, align 8, !tbaa !24
  %19 = load ptr, ptr %11, align 8, !tbaa !24
  %20 = load i32, ptr %12, align 4, !tbaa !25
  %21 = load i32, ptr %13, align 4, !tbaa !25
  %22 = call i32 @ff_filter_process_command(ptr noundef %16, ptr noundef %17, ptr noundef %18, ptr noundef %19, i32 noundef %20, i32 noundef %21)
  store i32 %22, ptr %14, align 4, !tbaa !25
  %23 = load i32, ptr %14, align 4, !tbaa !25
  %24 = icmp slt i32 %23, 0
  br i1 %24, label %25, label %27

25:                                               ; preds = %6
  %26 = load i32, ptr %14, align 4, !tbaa !25
  store i32 %26, ptr %7, align 4
  store i32 1, ptr %15, align 4
  br label %30

27:                                               ; preds = %6
  %28 = load ptr, ptr %8, align 8, !tbaa !4
  %29 = call i32 @get_coeffs(ptr noundef %28)
  store i32 %29, ptr %7, align 4
  store i32 1, ptr %15, align 4
  br label %30

30:                                               ; preds = %27, %25
  call void @llvm.lifetime.end.p0(i64 4, ptr %14) #8
  %31 = load i32, ptr %7, align 4
  ret i32 %31
}