; Function Attrs: nounwind uwtable
define internal range(i32 -2147483648, 1) i32 @process_command(ptr noundef %0, ptr noundef %1, ptr noundef %2, ptr noundef %3, i32 noundef %4, i32 noundef %5) #1 {
  %7 = tail call i32 @ff_filter_process_command(ptr noundef %0, ptr noundef %1, ptr noundef %2, ptr noundef %3, i32 noundef %4, i32 noundef %5) #9
  %8 = icmp slt i32 %7, 0
  br i1 %8, label %49, label %9

9:                                                ; preds = %6
  %10 = getelementptr i8, ptr %0, i64 32
  %.val = load ptr, ptr %10, align 8, !tbaa !20
  %11 = getelementptr i8, ptr %0, i64 72
  %.val10 = load ptr, ptr %11, align 8, !tbaa !4
  %.val.val = load ptr, ptr %.val, align 8, !tbaa !21
  %12 = getelementptr i8, ptr %.val.val, i64 64
  %.val.val.val = load i32, ptr %12, align 8, !tbaa !23
  %13 = getelementptr inbounds nuw i8, ptr %.val10, i64 56
  %14 = load double, ptr %13, align 8, !tbaa !32
  %15 = fmul nsz double %14, 0x401921FB54442D18
  %16 = sitofp i32 %.val.val.val to double
  %17 = fdiv nsz double %15, %16
  %18 = tail call nsz double @llvm.sin.f64(double %17)
  %19 = fmul nsz double %18, 5.000000e-01
  %20 = getelementptr inbounds nuw i8, ptr %.val10, i64 64
  %21 = load double, ptr %20, align 8, !tbaa !37
  %22 = fdiv nsz double 1.000000e+00, %21
  %23 = fadd nsz double %22, -1.000000e+00
  %24 = tail call nsz double @llvm.fmuladd.f64(double %23, double 2.000000e+00, double 2.000000e+00)
  %25 = tail call nsz double @llvm.sqrt.f64(double %24)
  %26 = fmul nsz double %19, %25
  %27 = fadd nsz double %26, 1.000000e+00
  %28 = getelementptr inbounds nuw i8, ptr %.val10, i64 72
  store double %27, ptr %28, align 8, !tbaa !38
  %29 = tail call nsz double @llvm.cos.f64(double %17)
  %30 = fmul nsz double %29, -2.000000e+00
  %31 = getelementptr inbounds nuw i8, ptr %.val10, i64 80
  %32 = fsub nsz double 1.000000e+00, %26
  %33 = getelementptr inbounds nuw i8, ptr %.val10, i64 88
  %34 = fsub nsz double 1.000000e+00, %29
  %35 = fmul nsz double %34, 5.000000e-01
  %36 = getelementptr inbounds nuw i8, ptr %.val10, i64 96
  %37 = getelementptr inbounds nuw i8, ptr %.val10, i64 104
  %38 = getelementptr inbounds nuw i8, ptr %.val10, i64 112
  %39 = fdiv nsz double %30, %27
  store double %39, ptr %31, align 8, !tbaa !39
  %40 = fdiv nsz double %32, %27
  store double %40, ptr %33, align 8, !tbaa !40
  %41 = fdiv nsz double %35, %27
  store double %41, ptr %36, align 8, !tbaa !41
  %42 = fdiv nsz double %34, %27
  store double %42, ptr %37, align 8, !tbaa !42
  store double %41, ptr %38, align 8, !tbaa !43
  %43 = getelementptr inbounds nuw i8, ptr %.val10, i64 48
  %44 = load double, ptr %43, align 8, !tbaa !44
  %45 = fmul nsz double %44, %16
  %46 = fdiv nsz double %45, 1.000000e+03
  %47 = fptosi double %46 to i32
  %48 = getelementptr inbounds nuw i8, ptr %.val10, i64 160
  store i32 %47, ptr %48, align 8, !tbaa !45
  br label %49

49:                                               ; preds = %6, %9
  %.0 = phi i32 [ 0, %9 ], [ %7, %6 ]
  ret i32 %.0
}